target datalayout = "e-m:e-p270:32:32-p271:32:32-p272:64:64-i64:64-i128:128-f80:128-n8:16:32:64-S128"
target triple = "x86_64-pc-linux-gnu"

%class.ciEnv = type <{ ptr, %class.Arena, ptr, ptr, ptr, ptr, %class.CHeapStringHolder, i8, [3 x i8], i32, i8, [3 x i8], i32, ptr, ptr, ptr, ptr, i32, [4 x i8], i64, i8, i8, i8, i8, i8, i8, i8, i8, ptr, ptr, ptr, ptr, ptr, ptr, ptr, ptr, ptr, [1025 x i8], [7 x i8] }>
%class.Arena = type { i8, i8, i64, ptr, ptr, ptr, ptr }
%class.CHeapStringHolder = type { ptr }
%class.GrowableArrayView.30 = type { %class.GrowableArrayBase, ptr }
%class.GrowableArrayBase = type { i32, i32 }
%class.GrowableArrayView.27 = type { %class.GrowableArrayBase, ptr }

@.str.20 = private unnamed_addr constant [3 x i8] c"%s\00", align 1

; Function Attrs: mustprogress nounwind uwtable
define linkonce_odr hidden noundef i32 @_ZN5ciEnv13klass_compareERKPK13InstanceKlassS4_(ptr noundef nonnull align 8 dereferenceable(8) %0, ptr noundef nonnull align 8 dereferenceable(8) %1) #1 comdat align 2 {
  %3 = alloca i32, align 4
  %4 = alloca ptr, align 8
  %5 = alloca ptr, align 8
  store ptr %0, ptr %4, align 8
  store ptr %1, ptr %5, align 8
  %6 = load ptr, ptr %4, align 8
  %7 = load ptr, ptr %6, align 8
  %8 = load ptr, ptr %5, align 8
  %9 = load ptr, ptr %8, align 8
  %10 = icmp ugt ptr %7, %9
  br i1 %10, label %11, label %12

11:                                               ; preds = %2
  store i32 1, ptr %3, align 4
  br label %20

12:                                               ; preds = %2
  %13 = load ptr, ptr %4, align 8
  %14 = load ptr, ptr %13, align 8
  %15 = load ptr, ptr %5, align 8
  %16 = load ptr, ptr %15, align 8
  %17 = icmp ult ptr %14, %16
  br i1 %17, label %18, label %19

18:                                               ; preds = %12
  store i32 -1, ptr %3, align 4
  br label %20

19:                                               ; preds = %12
  store i32 0, ptr %3, align 4
  br label %20

20:                                               ; preds = %19, %18, %11
  %21 = load i32, ptr %3, align 4
  ret i32 %21
}

; Function Attrs: mustprogress nounwind uwtable
define linkonce_odr hidden noundef nonnull align 8 dereferenceable(8) ptr @_ZNK17GrowableArrayViewIPK13InstanceKlassE2atEi(ptr noundef nonnull align 8 dereferenceable(16) %0, i32 noundef %1) #1 comdat align 2 {
  %3 = alloca ptr, align 8
  %4 = alloca i32, align 4
  store ptr %0, ptr %3, align 8
  store i32 %1, ptr %4, align 4
  %5 = load ptr, ptr %3, align 8
  %6 = getelementptr inbounds %class.GrowableArrayView.27, ptr %5, i32 0, i32 1
  %7 = load ptr, ptr %6, align 8
  %8 = load i32, ptr %4, align 4
  %9 = sext i32 %8 to i64
  %10 = getelementptr inbounds ptr, ptr %7, i64 %9
  ret ptr %10
}

; Function Attrs: mustprogress nounwind uwtable
define linkonce_odr hidden noundef i32 @_ZNK17GrowableArrayBase6lengthEv(ptr noundef nonnull align 4 dereferenceable(8) %0) #1 comdat align 2 {
  %2 = alloca ptr, align 8
  store ptr %0, ptr %2, align 8
  %3 = load ptr, ptr %2, align 8
  %4 = getelementptr inbounds %class.GrowableArrayBase, ptr %3, i32 0, i32 0
  %5 = load i32, ptr %4, align 4
  ret i32 %5
}

; Function Attrs: mustprogress nounwind uwtable
define linkonce_odr hidden noundef nonnull align 8 dereferenceable(8) ptr @_ZN17GrowableArrayViewIPKcE2atEi(ptr noundef nonnull align 8 dereferenceable(16) %0, i32 noundef %1) #1 comdat align 2 {
  %3 = alloca ptr, align 8
  %4 = alloca i32, align 4
  store ptr %0, ptr %3, align 8
  store i32 %1, ptr %4, align 4
  %5 = load ptr, ptr %3, align 8
  %6 = getelementptr inbounds %class.GrowableArrayView.30, ptr %5, i32 0, i32 1
  %7 = load ptr, ptr %6, align 8
  %8 = load i32, ptr %4, align 4
  %9 = sext i32 %8 to i64
  %10 = getelementptr inbounds ptr, ptr %7, i64 %9
  ret ptr %10
}

; Function Attrs: mustprogress nounwind uwtable
define linkonce_odr hidden noundef i32 @_ZNK17GrowableArrayViewIPK13InstanceKlassE11find_sortedIS2_TnPFiRKT_RKS2_EXadL_ZN5ciEnv13klass_compareES9_S9_EEEEiS7_Rb(ptr noundef nonnull align 8 dereferenceable(16) %0, ptr noundef nonnull align 8 dereferenceable(8) %1, ptr noundef nonnull align 1 dereferenceable(1) %2) #1 comdat align 2 {
  %4 = alloca i32, align 4
  %5 = alloca ptr, align 8
  %6 = alloca ptr, align 8
  %7 = alloca ptr, align 8
  %8 = alloca i32, align 4
  %9 = alloca i32, align 4
  %10 = alloca i32, align 4
  %11 = alloca ptr, align 8
  %12 = alloca i32, align 4
  store ptr %0, ptr %5, align 8
  store ptr %1, ptr %6, align 8
  store ptr %2, ptr %7, align 8
  %13 = load ptr, ptr %5, align 8
  %14 = load ptr, ptr %7, align 8
  store i8 0, ptr %14, align 1
  store i32 0, ptr %8, align 4
  %15 = call noundef i32 @_ZNK17GrowableArrayBase6lengthEv(ptr noundef nonnull align 4 dereferenceable(8) %13)
  %16 = sub nsw i32 %15, 1
  store i32 %16, ptr %9, align 4
  br label %17

17:                                               ; preds = %46, %3
  %18 = load i32, ptr %9, align 4
  %19 = load i32, ptr %8, align 4
  %20 = icmp sge i32 %18, %19
  br i1 %20, label %21, label %47

21:                                               ; preds = %17
  %22 = load i32, ptr %9, align 4
  %23 = load i32, ptr %8, align 4
  %24 = add i32 %22, %23
  %25 = udiv i32 %24, 2
  store i32 %25, ptr %10, align 4
  %26 = load i32, ptr %10, align 4
  %27 = call noundef nonnull align 8 dereferenceable(8) ptr @_ZNK17GrowableArrayViewIPK13InstanceKlassE2atEi(ptr noundef nonnull align 8 dereferenceable(16) %13, i32 noundef %26)
  %28 = load ptr, ptr %27, align 8
  store ptr %28, ptr %11, align 8
  %29 = load ptr, ptr %6, align 8
  %30 = call noundef i32 @_ZN5ciEnv13klass_compareERKPK13InstanceKlassS4_(ptr noundef nonnull align 8 dereferenceable(8) %29, ptr noundef nonnull align 8 dereferenceable(8) %11)
  store i32 %30, ptr %12, align 4
  %31 = load i32, ptr %12, align 4
  %32 = icmp sgt i32 %31, 0
  br i1 %32, label %33, label %36

33:                                               ; preds = %21
  %34 = load i32, ptr %10, align 4
  %35 = add nsw i32 %34, 1
  store i32 %35, ptr %8, align 4
  br label %46

36:                                               ; preds = %21
  %37 = load i32, ptr %12, align 4
  %38 = icmp slt i32 %37, 0
  br i1 %38, label %39, label %42

39:                                               ; preds = %36
  %40 = load i32, ptr %10, align 4
  %41 = sub nsw i32 %40, 1
  store i32 %41, ptr %9, align 4
  br label %45

42:                                               ; preds = %36
  %43 = load ptr, ptr %7, align 8
  store i8 1, ptr %43, align 1
  %44 = load i32, ptr %10, align 4
  store i32 %44, ptr %4, align 4
  br label %49

45:                                               ; preds = %39
  br label %46

46:                                               ; preds = %45, %33
  br label %17, !llvm.loop !8

47:                                               ; preds = %17
  %48 = load i32, ptr %8, align 4
  store i32 %48, ptr %4, align 4
  br label %49

49:                                               ; preds = %47, %42
  %50 = load i32, ptr %4, align 4
  ret i32 %50
}

; Function Attrs: mustprogress nounwind uwtable
define hidden noundef zeroext i1 @_ZNK5ciEnv8dyno_locEPK13InstanceKlassRPKc(ptr noundef nonnull align 8 dereferenceable(1265) %0, ptr noundef %1, ptr noundef nonnull align 8 dereferenceable(8) %2) #1 align 2 {
  %4 = alloca i1, align 1
  %5 = alloca ptr, align 8
  %6 = alloca ptr, align 8
  %7 = alloca ptr, align 8
  %8 = alloca i8, align 1
  %9 = alloca i32, align 4
  store ptr %0, ptr %5, align 8
  store ptr %1, ptr %6, align 8
  store ptr %2, ptr %7, align 8
  %10 = load ptr, ptr %5, align 8
  store i8 0, ptr %8, align 1
  %11 = getelementptr inbounds %class.ciEnv, ptr %10, i32 0, i32 35
  %12 = load ptr, ptr %11, align 8
  %13 = call noundef i32 @_ZNK17GrowableArrayViewIPK13InstanceKlassE11find_sortedIS2_TnPFiRKT_RKS2_EXadL_ZN5ciEnv13klass_compareES9_S9_EEEEiS7_Rb(ptr noundef nonnull align 8 dereferenceable(16) %12, ptr noundef nonnull align 8 dereferenceable(8) %6, ptr noundef nonnull align 1 dereferenceable(1) %8)
  store i32 %13, ptr %9, align 4
  %14 = load i8, ptr %8, align 1
  %15 = trunc i8 %14 to i1
  br i1 %15, label %17, label %16

16:                                               ; preds = %3
  store i1 false, ptr %4, align 1
  br label %26

17:                                               ; preds = %3
  %18 = getelementptr inbounds %class.ciEnv, ptr %10, i32 0, i32 36
  %19 = load ptr, ptr %18, align 8
  %20 = load i32, ptr %9, align 4
  %21 = call noundef nonnull align 8 dereferenceable(8) ptr @_ZN17GrowableArrayViewIPKcE2atEi(ptr noundef nonnull align 8 dereferenceable(16) %19, i32 noundef %20)
  %22 = load ptr, ptr %21, align 8
  %23 = load ptr, ptr %7, align 8
  store ptr %22, ptr %23, align 8
  %24 = load i8, ptr %8, align 1
  %25 = trunc i8 %24 to i1
  store i1 %25, ptr %4, align 1
  br label %26

26:                                               ; preds = %17, %16
  %27 = load i1, ptr %4, align 1
  ret i1 %27
}

; Function Attrs: mustprogress nounwind uwtable
define hidden noundef zeroext i1 @_ZNK5ciEnv14print_dyno_locEP12outputStreamPK13InstanceKlass(ptr noundef nonnull align 8 dereferenceable(1265) %0, ptr noundef %1, ptr noundef %2) #1 align 2 {
  %4 = alloca i1, align 1
  %5 = alloca ptr, align 8
  %6 = alloca ptr, align 8
  %7 = alloca ptr, align 8
  %8 = alloca ptr, align 8
  store ptr %0, ptr %5, align 8
  store ptr %1, ptr %6, align 8
  store ptr %2, ptr %7, align 8
  %9 = load ptr, ptr %5, align 8
  %10 = load ptr, ptr %7, align 8
  %11 = call noundef zeroext i1 @_ZNK5ciEnv8dyno_locEPK13InstanceKlassRPKc(ptr noundef nonnull align 8 dereferenceable(1265) %9, ptr noundef %10, ptr noundef nonnull align 8 dereferenceable(8) %8)
  br i1 %11, label %12, label %15

12:                                               ; preds = %3
  %13 = load ptr, ptr %6, align 8
  %14 = load ptr, ptr %8, align 8
  call void (ptr, ptr, ...) @_ZN12outputStream5printEPKcz(ptr noundef nonnull align 8 dereferenceable(56) %13, ptr noundef @.str.20, ptr noundef %14)
  store i1 true, ptr %4, align 1
  br label %16

15:                                               ; preds = %3
  store i1 false, ptr %4, align 1
  br label %16

16:                                               ; preds = %15, %12
  %17 = load i1, ptr %4, align 1
  ret i1 %17
}