; Function Attrs: mustprogress nounwind uwtable
define hidden noundef zeroext i1 @_ZNK5ciEnv14print_dyno_locEP12outputStreamPK13InstanceKlass(ptr nocapture noundef nonnull readonly align 8 dereferenceable(1265) %0, ptr noundef %1, ptr noundef readnone %2) local_unnamed_addr #0 align 2 {
  %4 = getelementptr inbounds i8, ptr %0, i64 224
  %5 = load ptr, ptr %4, align 8
  %6 = load i32, ptr %5, align 4
  %.not20.i.i = icmp slt i32 %6, 1
  br i1 %.not20.i.i, label %_ZNK5ciEnv8dyno_locEPK13InstanceKlassRPKc.exit.thread, label %.lr.ph.i.i

.lr.ph.i.i:                                       ; preds = %3
  %7 = add nsw i32 %6, -1
  %8 = getelementptr inbounds i8, ptr %5, i64 8
  %9 = load ptr, ptr %8, align 8
  br label %10

10:                                               ; preds = %23, %.lr.ph.i.i
  %.01522.i.i = phi i32 [ 0, %.lr.ph.i.i ], [ %.1.i.i, %23 ]
  %.01621.i.i = phi i32 [ %7, %.lr.ph.i.i ], [ %.117.i.i, %23 ]
  %11 = add i32 %.01621.i.i, %.01522.i.i
  %12 = lshr i32 %11, 1
  %13 = zext nneg i32 %12 to i64
  %14 = getelementptr inbounds ptr, ptr %9, i64 %13
  %15 = load ptr, ptr %14, align 8
  %16 = icmp ult ptr %15, %2
  br i1 %16, label %17, label %19

17:                                               ; preds = %10
  %18 = add nuw nsw i32 %12, 1
  br label %23

19:                                               ; preds = %10
  %20 = icmp ugt ptr %15, %2
  br i1 %20, label %21, label %24

21:                                               ; preds = %19
  %22 = add nsw i32 %12, -1
  br label %23

23:                                               ; preds = %21, %17
  %.117.i.i = phi i32 [ %.01621.i.i, %17 ], [ %22, %21 ]
  %.1.i.i = phi i32 [ %18, %17 ], [ %.01522.i.i, %21 ]
  %.not.i.i = icmp slt i32 %.117.i.i, %.1.i.i
  br i1 %.not.i.i, label %_ZNK5ciEnv8dyno_locEPK13InstanceKlassRPKc.exit.thread, label %10, !llvm.loop !11

24:                                               ; preds = %19
  %25 = getelementptr inbounds i8, ptr %0, i64 232
  %26 = load ptr, ptr %25, align 8
  %27 = getelementptr inbounds i8, ptr %26, i64 8
  %28 = load ptr, ptr %27, align 8
  %29 = getelementptr inbounds ptr, ptr %28, i64 %13
  %30 = load ptr, ptr %29, align 8
  tail call void (ptr, ptr, ...) @_ZN12outputStream5printEPKcz(ptr noundef nonnull align 8 dereferenceable(56) %1, ptr noundef nonnull @.str.20, ptr noundef %30) #18
  br label %_ZNK5ciEnv8dyno_locEPK13InstanceKlassRPKc.exit.thread

_ZNK5ciEnv8dyno_locEPK13InstanceKlassRPKc.exit.thread: ; preds = %23, %3, %24
  %.0.i6 = phi i1 [ true, %24 ], [ false, %3 ], [ false, %23 ]
  ret i1 %.0.i6
}